target datalayout = "e-m:e-p270:32:32-p271:32:32-p272:64:64-i64:64-i128:128-f80:128-n8:16:32:64-S128"
target triple = "x86_64-pc-linux-gnu"

%struct.PQExpBufferData = type { ptr, i64, i64 }

@appendByteaLiteral.hextbl = internal constant [17 x i8] c"0123456789abcdef\00", align 16

; Function Attrs: nounwind uwtable
define dso_local void @appendByteaLiteral(ptr noundef %0, ptr noundef %1, i64 noundef %2, i1 noundef zeroext %3) #0 {
  %5 = alloca ptr, align 8
  %6 = alloca ptr, align 8
  %7 = alloca i64, align 8
  %8 = alloca i8, align 1
  %9 = alloca ptr, align 8
  %10 = alloca ptr, align 8
  %11 = alloca i32, align 4
  %12 = alloca i8, align 1
  store ptr %0, ptr %5, align 8
  store ptr %1, ptr %6, align 8
  store i64 %2, ptr %7, align 8
  %13 = zext i1 %3 to i8
  store i8 %13, ptr %8, align 1
  call void @llvm.lifetime.start.p0(i64 8, ptr %9) #8
  %14 = load ptr, ptr %6, align 8
  store ptr %14, ptr %9, align 8
  call void @llvm.lifetime.start.p0(i64 8, ptr %10) #8
  %15 = load ptr, ptr %5, align 8
  %16 = load i64, ptr %7, align 8
  %17 = mul i64 2, %16
  %18 = add i64 %17, 5
  %19 = call i32 @enlargePQExpBuffer(ptr noundef %15, i64 noundef %18)
  %20 = icmp ne i32 %19, 0
  br i1 %20, label %22, label %21

21:                                               ; preds = %4
  store i32 1, ptr %11, align 4
  br label %80

22:                                               ; preds = %4
  %23 = load ptr, ptr %5, align 8
  %24 = getelementptr inbounds nuw %struct.PQExpBufferData, ptr %23, i32 0, i32 0
  %25 = load ptr, ptr %24, align 8
  %26 = load ptr, ptr %5, align 8
  %27 = getelementptr inbounds nuw %struct.PQExpBufferData, ptr %26, i32 0, i32 1
  %28 = load i64, ptr %27, align 8
  %29 = getelementptr inbounds nuw i8, ptr %25, i64 %28
  store ptr %29, ptr %10, align 8
  %30 = load ptr, ptr %10, align 8
  %31 = getelementptr inbounds nuw i8, ptr %30, i32 1
  store ptr %31, ptr %10, align 8
  store i8 39, ptr %30, align 1
  %32 = load i8, ptr %8, align 1, !range !6, !noundef !7
  %33 = trunc i8 %32 to i1
  br i1 %33, label %37, label %34

34:                                               ; preds = %22
  %35 = load ptr, ptr %10, align 8
  %36 = getelementptr inbounds nuw i8, ptr %35, i32 1
  store ptr %36, ptr %10, align 8
  store i8 92, ptr %35, align 1
  br label %37

37:                                               ; preds = %34, %22
  %38 = load ptr, ptr %10, align 8
  %39 = getelementptr inbounds nuw i8, ptr %38, i32 1
  store ptr %39, ptr %10, align 8
  store i8 92, ptr %38, align 1
  %40 = load ptr, ptr %10, align 8
  %41 = getelementptr inbounds nuw i8, ptr %40, i32 1
  store ptr %41, ptr %10, align 8
  store i8 120, ptr %40, align 1
  br label %42

42:                                               ; preds = %46, %37
  %43 = load i64, ptr %7, align 8
  %44 = add i64 %43, -1
  store i64 %44, ptr %7, align 8
  %45 = icmp ugt i64 %43, 0
  br i1 %45, label %46, label %67

46:                                               ; preds = %42
  call void @llvm.lifetime.start.p0(i64 1, ptr %12) #8
  %47 = load ptr, ptr %9, align 8
  %48 = getelementptr inbounds nuw i8, ptr %47, i32 1
  store ptr %48, ptr %9, align 8
  %49 = load i8, ptr %47, align 1
  store i8 %49, ptr %12, align 1
  %50 = load i8, ptr %12, align 1
  %51 = zext i8 %50 to i32
  %52 = ashr i32 %51, 4
  %53 = and i32 %52, 15
  %54 = sext i32 %53 to i64
  %55 = getelementptr inbounds [17 x i8], ptr @appendByteaLiteral.hextbl, i64 0, i64 %54
  %56 = load i8, ptr %55, align 1
  %57 = load ptr, ptr %10, align 8
  %58 = getelementptr inbounds nuw i8, ptr %57, i32 1
  store ptr %58, ptr %10, align 8
  store i8 %56, ptr %57, align 1
  %59 = load i8, ptr %12, align 1
  %60 = zext i8 %59 to i32
  %61 = and i32 %60, 15
  %62 = sext i32 %61 to i64
  %63 = getelementptr inbounds [17 x i8], ptr @appendByteaLiteral.hextbl, i64 0, i64 %62
  %64 = load i8, ptr %63, align 1
  %65 = load ptr, ptr %10, align 8
  %66 = getelementptr inbounds nuw i8, ptr %65, i32 1
  store ptr %66, ptr %10, align 8
  store i8 %64, ptr %65, align 1
  call void @llvm.lifetime.end.p0(i64 1, ptr %12) #8
  br label %42, !llvm.loop !13

67:                                               ; preds = %42
  %68 = load ptr, ptr %10, align 8
  %69 = getelementptr inbounds nuw i8, ptr %68, i32 1
  store ptr %69, ptr %10, align 8
  store i8 39, ptr %68, align 1
  %70 = load ptr, ptr %10, align 8
  store i8 0, ptr %70, align 1
  %71 = load ptr, ptr %10, align 8
  %72 = load ptr, ptr %5, align 8
  %73 = getelementptr inbounds nuw %struct.PQExpBufferData, ptr %72, i32 0, i32 0
  %74 = load ptr, ptr %73, align 8
  %75 = ptrtoint ptr %71 to i64
  %76 = ptrtoint ptr %74 to i64
  %77 = sub i64 %75, %76
  %78 = load ptr, ptr %5, align 8
  %79 = getelementptr inbounds nuw %struct.PQExpBufferData, ptr %78, i32 0, i32 1
  store i64 %77, ptr %79, align 8
  store i32 0, ptr %11, align 4
  br label %80

80:                                               ; preds = %67, %21
  call void @llvm.lifetime.end.p0(i64 8, ptr %10) #8
  call void @llvm.lifetime.end.p0(i64 8, ptr %9) #8
  %81 = load i32, ptr %11, align 4
  switch i32 %81, label %83 [
    i32 0, label %82
    i32 1, label %82
  ]

82:                                               ; preds = %80, %80
  ret void

83:                                               ; preds = %80
  unreachable
}