; Function Attrs: nounwind uwtable
define dso_local void @appendByteaLiteral(ptr noundef %0, ptr noundef readonly captures(none) %1, i64 noundef %2, i1 noundef zeroext %3) local_unnamed_addr #0 {
  %5 = shl i64 %2, 1
  %6 = add i64 %5, 5
  %7 = tail call i32 @enlargePQExpBuffer(ptr noundef %0, i64 noundef %6) #11
  %.not = icmp eq i32 %7, 0
  br i1 %.not, label %36, label %8

8:                                                ; preds = %4
  %9 = load ptr, ptr %0, align 8
  %10 = getelementptr inbounds nuw i8, ptr %0, i64 8
  %11 = load i64, ptr %10, align 8
  %12 = getelementptr inbounds nuw i8, ptr %9, i64 %11
  %13 = getelementptr inbounds nuw i8, ptr %12, i64 1
  store i8 39, ptr %12, align 1
  br i1 %3, label %16, label %14

14:                                               ; preds = %8
  %15 = getelementptr inbounds nuw i8, ptr %12, i64 2
  store i8 92, ptr %13, align 1
  br label %16

16:                                               ; preds = %14, %8
  %.020 = phi ptr [ %13, %8 ], [ %15, %14 ]
  %17 = getelementptr inbounds nuw i8, ptr %.020, i64 1
  store i8 92, ptr %.020, align 1
  store i8 120, ptr %17, align 1
  %.123 = getelementptr inbounds nuw i8, ptr %.020, i64 2
  %.not2224 = icmp eq i64 %2, 0
  br i1 %.not2224, label %._crit_edge, label %.lr.ph

.lr.ph:                                           ; preds = %16, %.lr.ph
  %.128 = phi ptr [ %.1, %.lr.ph ], [ %.123, %16 ]
  %.027 = phi i64 [ %18, %.lr.ph ], [ %2, %16 ]
  %.020.pn26 = phi ptr [ %.128, %.lr.ph ], [ %.020, %16 ]
  %.02125 = phi ptr [ %19, %.lr.ph ], [ %1, %16 ]
  %18 = add i64 %.027, -1
  %19 = getelementptr inbounds nuw i8, ptr %.02125, i64 1
  %20 = load i8, ptr %.02125, align 1
  %21 = zext i8 %20 to i32
  %22 = lshr i32 %21, 4
  %23 = zext nneg i32 %22 to i64
  %24 = getelementptr inbounds nuw [17 x i8], ptr @appendByteaLiteral.hextbl, i64 0, i64 %23
  %25 = load i8, ptr %24, align 1
  %26 = getelementptr inbounds nuw i8, ptr %.020.pn26, i64 3
  store i8 %25, ptr %.128, align 1
  %27 = and i32 %21, 15
  %28 = zext nneg i32 %27 to i64
  %29 = getelementptr inbounds nuw [17 x i8], ptr @appendByteaLiteral.hextbl, i64 0, i64 %28
  %30 = load i8, ptr %29, align 1
  store i8 %30, ptr %26, align 1
  %.1 = getelementptr inbounds nuw i8, ptr %.128, i64 2
  %.not22 = icmp eq i64 %18, 0
  br i1 %.not22, label %._crit_edge, label %.lr.ph, !llvm.loop !11

._crit_edge:                                      ; preds = %.lr.ph, %16
  %.020.pn.lcssa = phi ptr [ %.020, %16 ], [ %.128, %.lr.ph ]
  %.1.lcssa = phi ptr [ %.123, %16 ], [ %.1, %.lr.ph ]
  %31 = getelementptr inbounds nuw i8, ptr %.020.pn.lcssa, i64 3
  store i8 39, ptr %.1.lcssa, align 1
  store i8 0, ptr %31, align 1
  %32 = load ptr, ptr %0, align 8
  %33 = ptrtoint ptr %31 to i64
  %34 = ptrtoint ptr %32 to i64
  %35 = sub i64 %33, %34
  store i64 %35, ptr %10, align 8
  br label %36

36:                                               ; preds = %4, %._crit_edge
  ret void
}